target datalayout = "e-m:e-p270:32:32-p271:32:32-p272:64:64-i64:64-i128:128-f80:128-n8:16:32:64-S128"
target triple = "x86_64-pc-linux-gnu"

%struct.lua_State = type { ptr, i8, i8, i8, i8, i16, %union.StkIdRel, ptr, ptr, %union.StkIdRel, %union.StkIdRel, ptr, %union.StkIdRel, ptr, ptr, ptr, %struct.CallInfo, ptr, i64, i32, i32, i32, i32, i32, %struct.anon.3 }
%union.StkIdRel = type { ptr }
%struct.CallInfo = type { %union.StkIdRel, %union.StkIdRel, ptr, ptr, %union.anon, %union.anon.2, i32 }
%union.anon = type { %struct.anon.1 }
%struct.anon.1 = type { ptr, i64, i64 }
%union.anon.2 = type { i32 }
%struct.anon.3 = type { i32, i32 }
%struct.CloseP = type { ptr, i32 }

; Function Attrs: nounwind uwtable
define hidden i32 @luaD_closeprotected(ptr noundef %0, i64 noundef %1, i32 noundef %2) #0 {
  %4 = alloca i32, align 4
  %5 = alloca ptr, align 8
  %6 = alloca i64, align 8
  %7 = alloca i32, align 4
  %8 = alloca ptr, align 8
  %9 = alloca i8, align 1
  %10 = alloca %struct.CloseP, align 8
  %11 = alloca i32, align 4
  store ptr %0, ptr %5, align 8, !tbaa !4
  store i64 %1, ptr %6, align 8, !tbaa !59
  store i32 %2, ptr %7, align 4, !tbaa !9
  call void @llvm.lifetime.start.p0(i64 8, ptr %8) #11
  %12 = load ptr, ptr %5, align 8, !tbaa !4
  %13 = getelementptr inbounds nuw %struct.lua_State, ptr %12, i32 0, i32 8
  %14 = load ptr, ptr %13, align 8, !tbaa !53
  store ptr %14, ptr %8, align 8, !tbaa !54
  call void @llvm.lifetime.start.p0(i64 1, ptr %9) #11
  %15 = load ptr, ptr %5, align 8, !tbaa !4
  %16 = getelementptr inbounds nuw %struct.lua_State, ptr %15, i32 0, i32 4
  %17 = load i8, ptr %16, align 1, !tbaa !58
  store i8 %17, ptr %9, align 1, !tbaa !34
  br label %18

18:                                               ; preds = %50, %3
  call void @llvm.lifetime.start.p0(i64 16, ptr %10) #11
  %19 = load ptr, ptr %5, align 8, !tbaa !4
  %20 = getelementptr inbounds nuw %struct.lua_State, ptr %19, i32 0, i32 10
  %21 = load ptr, ptr %20, align 8, !tbaa !34
  %22 = load i64, ptr %6, align 8, !tbaa !59
  %23 = getelementptr inbounds i8, ptr %21, i64 %22
  %24 = getelementptr inbounds nuw %struct.CloseP, ptr %10, i32 0, i32 0
  store ptr %23, ptr %24, align 8, !tbaa !87
  %25 = load i32, ptr %7, align 4, !tbaa !9
  %26 = getelementptr inbounds nuw %struct.CloseP, ptr %10, i32 0, i32 1
  store i32 %25, ptr %26, align 8, !tbaa !89
  %27 = load ptr, ptr %5, align 8, !tbaa !4
  %28 = call i32 @luaD_rawrunprotected(ptr noundef %27, ptr noundef @closepaux, ptr noundef %10)
  store i32 %28, ptr %7, align 4, !tbaa !9
  %29 = load i32, ptr %7, align 4, !tbaa !9
  %30 = icmp eq i32 %29, 0
  %31 = zext i1 %30 to i32
  %32 = icmp ne i32 %31, 0
  %33 = zext i1 %32 to i32
  %34 = sext i32 %33 to i64
  %35 = call i64 @llvm.expect.i64(i64 %34, i64 1)
  %36 = icmp ne i64 %35, 0
  br i1 %36, label %37, label %40

37:                                               ; preds = %18
  %38 = getelementptr inbounds nuw %struct.CloseP, ptr %10, i32 0, i32 1
  %39 = load i32, ptr %38, align 8, !tbaa !89
  store i32 %39, ptr %4, align 4
  store i32 1, ptr %11, align 4
  br label %48

40:                                               ; preds = %18
  %41 = load ptr, ptr %8, align 8, !tbaa !54
  %42 = load ptr, ptr %5, align 8, !tbaa !4
  %43 = getelementptr inbounds nuw %struct.lua_State, ptr %42, i32 0, i32 8
  store ptr %41, ptr %43, align 8, !tbaa !53
  %44 = load i8, ptr %9, align 1, !tbaa !34
  %45 = load ptr, ptr %5, align 8, !tbaa !4
  %46 = getelementptr inbounds nuw %struct.lua_State, ptr %45, i32 0, i32 4
  store i8 %44, ptr %46, align 1, !tbaa !58
  br label %47

47:                                               ; preds = %40
  store i32 0, ptr %11, align 4
  br label %48

48:                                               ; preds = %47, %37
  call void @llvm.lifetime.end.p0(i64 16, ptr %10) #11
  %49 = load i32, ptr %11, align 4
  switch i32 %49, label %51 [
    i32 0, label %50
  ]

50:                                               ; preds = %48
  br label %18

51:                                               ; preds = %48
  call void @llvm.lifetime.end.p0(i64 1, ptr %9) #11
  call void @llvm.lifetime.end.p0(i64 8, ptr %8) #11
  %52 = load i32, ptr %4, align 4
  ret i32 %52
}