; Function Attrs: nounwind uwtable
define hidden i32 @luaD_closeprotected(ptr noundef %0, i64 noundef %1, i32 noundef %2) local_unnamed_addr #0 {
  %4 = alloca %struct.CloseP, align 8
  %5 = getelementptr inbounds nuw i8, ptr %0, i64 32
  %6 = load ptr, ptr %5, align 8, !tbaa !46
  %7 = getelementptr inbounds nuw i8, ptr %0, i64 11
  %8 = load i8, ptr %7, align 1, !tbaa !45
  %9 = getelementptr inbounds nuw i8, ptr %0, i64 48
  %10 = getelementptr inbounds nuw i8, ptr %4, i64 8
  call void @llvm.lifetime.start.p0(i64 16, ptr nonnull %4) #13
  %11 = load ptr, ptr %9, align 8, !tbaa !27
  %12 = getelementptr inbounds i8, ptr %11, i64 %1
  store ptr %12, ptr %4, align 8, !tbaa !76
  store i32 %2, ptr %10, align 8, !tbaa !79
  %13 = call i32 @luaD_rawrunprotected(ptr noundef nonnull %0, ptr noundef nonnull @closepaux, ptr noundef nonnull %4)
  %.not16 = icmp eq i32 %13, 0
  br i1 %.not16, label %._crit_edge, label %.lr.ph, !prof !80

.lr.ph:                                           ; preds = %3, %.lr.ph
  %14 = phi i32 [ %17, %.lr.ph ], [ %13, %3 ]
  store ptr %6, ptr %5, align 8, !tbaa !46
  store i8 %8, ptr %7, align 1, !tbaa !45
  call void @llvm.lifetime.end.p0(i64 16, ptr nonnull %4) #13
  call void @llvm.lifetime.start.p0(i64 16, ptr nonnull %4) #13
  %15 = load ptr, ptr %9, align 8, !tbaa !27
  %16 = getelementptr inbounds i8, ptr %15, i64 %1
  store ptr %16, ptr %4, align 8, !tbaa !76
  store i32 %14, ptr %10, align 8, !tbaa !79
  %17 = call i32 @luaD_rawrunprotected(ptr noundef nonnull %0, ptr noundef nonnull @closepaux, ptr noundef nonnull %4)
  %.not = icmp eq i32 %17, 0
  br i1 %.not, label %._crit_edge, label %.lr.ph, !prof !81

._crit_edge:                                      ; preds = %.lr.ph, %3
  %18 = load i32, ptr %10, align 8, !tbaa !79
  call void @llvm.lifetime.end.p0(i64 16, ptr nonnull %4) #13
  ret i32 %18
}